; Function Attrs: nounwind uwtable
define range(i32 0, 2) i32 @stbi__png_test(ptr noundef %0) local_unnamed_addr #2 {
  %2 = getelementptr inbounds nuw i8, ptr %0, i64 192
  %3 = getelementptr inbounds nuw i8, ptr %0, i64 200
  %4 = getelementptr inbounds nuw i8, ptr %0, i64 48
  %5 = getelementptr inbounds nuw i8, ptr %0, i64 16
  %6 = getelementptr inbounds nuw i8, ptr %0, i64 40
  %7 = getelementptr inbounds nuw i8, ptr %0, i64 56
  %8 = getelementptr inbounds nuw i8, ptr %0, i64 52
  %9 = getelementptr inbounds nuw i8, ptr %0, i64 208
  %10 = getelementptr inbounds nuw i8, ptr %0, i64 184
  %11 = getelementptr inbounds nuw i8, ptr %0, i64 57
  %.pre.i = load ptr, ptr %2, align 8, !tbaa !14
  %.pre7.i = load ptr, ptr %3, align 8, !tbaa !16
  br label %13

12:                                               ; preds = %stbi__get8.exit.i
  %indvars.iv.next.i = add nuw nsw i64 %indvars.iv.i, 1
  %exitcond.not.i = icmp eq i64 %indvars.iv.next.i, 8
  br i1 %exitcond.not.i, label %stbi__check_png_header.exit, label %13, !llvm.loop !28

13:                                               ; preds = %12, %1
  %14 = phi ptr [ %.pre7.i, %1 ], [ %41, %12 ]
  %15 = phi ptr [ %.pre.i, %1 ], [ %42, %12 ]
  %indvars.iv.i = phi i64 [ 0, %1 ], [ %indvars.iv.next.i, %12 ]
  %16 = icmp ult ptr %15, %14
  br i1 %16, label %17, label %20

17:                                               ; preds = %13
  %18 = getelementptr inbounds nuw i8, ptr %15, i64 1
  store ptr %18, ptr %2, align 8, !tbaa !14
  %19 = load i8, ptr %15, align 1, !tbaa !21
  br label %stbi__get8.exit.i

20:                                               ; preds = %13
  %21 = load i32, ptr %4, align 8, !tbaa !11
  %.not.i.i = icmp eq i32 %21, 0
  br i1 %.not.i.i, label %stbi__get8.exit.i, label %22

22:                                               ; preds = %20
  %23 = load ptr, ptr %5, align 8, !tbaa !3
  %24 = load ptr, ptr %6, align 8, !tbaa !19
  %25 = load i32, ptr %8, align 4, !tbaa !20
  %26 = tail call i32 %23(ptr noundef %24, ptr noundef nonnull %7, i32 noundef %25) #37
  %27 = load ptr, ptr %2, align 8, !tbaa !14
  %28 = load ptr, ptr %9, align 8, !tbaa !13
  %29 = ptrtoint ptr %27 to i64
  %30 = ptrtoint ptr %28 to i64
  %31 = sub i64 %29, %30
  %32 = trunc i64 %31 to i32
  %33 = load i32, ptr %10, align 8, !tbaa !12
  %34 = add nsw i32 %33, %32
  store i32 %34, ptr %10, align 8, !tbaa !12
  %35 = icmp eq i32 %26, 0
  br i1 %35, label %36, label %37

36:                                               ; preds = %22
  store i32 0, ptr %4, align 8, !tbaa !11
  store i8 0, ptr %7, align 1, !tbaa !21
  br label %stbi__refill_buffer.exit.i.i

37:                                               ; preds = %22
  %38 = sext i32 %26 to i64
  %39 = getelementptr inbounds i8, ptr %7, i64 %38
  %.pre.i.i = load i8, ptr %7, align 1, !tbaa !21
  br label %stbi__refill_buffer.exit.i.i

stbi__refill_buffer.exit.i.i:                     ; preds = %37, %36
  %40 = phi i8 [ 0, %36 ], [ %.pre.i.i, %37 ]
  %.sink.i.i.i = phi ptr [ %11, %36 ], [ %39, %37 ]
  store ptr %.sink.i.i.i, ptr %3, align 8, !tbaa !16
  store ptr %11, ptr %2, align 8, !tbaa !14
  br label %stbi__get8.exit.i

stbi__get8.exit.i:                                ; preds = %stbi__refill_buffer.exit.i.i, %20, %17
  %41 = phi ptr [ %14, %17 ], [ %.sink.i.i.i, %stbi__refill_buffer.exit.i.i ], [ %14, %20 ]
  %42 = phi ptr [ %18, %17 ], [ %11, %stbi__refill_buffer.exit.i.i ], [ %15, %20 ]
  %.0.i.i = phi i8 [ %19, %17 ], [ %40, %stbi__refill_buffer.exit.i.i ], [ 0, %20 ]
  %43 = getelementptr inbounds nuw [8 x i8], ptr @__const.stbi__check_png_header.png_sig, i64 0, i64 %indvars.iv.i
  %44 = load i8, ptr %43, align 1, !tbaa !21
  %.not.i = icmp eq i8 %.0.i.i, %44
  br i1 %.not.i, label %12, label %45

45:                                               ; preds = %stbi__get8.exit.i
  %46 = tail call align 8 ptr @llvm.threadlocal.address.p0(ptr align 8 @stbi__g_failure_reason)
  store ptr @.str.48, ptr %46, align 8, !tbaa !22
  br label %stbi__check_png_header.exit

stbi__check_png_header.exit:                      ; preds = %12, %45
  %.04.i = phi i32 [ 0, %45 ], [ 1, %12 ]
  %47 = load ptr, ptr %9, align 8, !tbaa !13
  store ptr %47, ptr %2, align 8, !tbaa !14
  %48 = getelementptr inbounds nuw i8, ptr %0, i64 216
  %49 = load ptr, ptr %48, align 8, !tbaa !15
  store ptr %49, ptr %3, align 8, !tbaa !16
  ret i32 %.04.i
}